target datalayout = "e-m:e-p270:32:32-p271:32:32-p272:64:64-i64:64-i128:128-f80:128-n8:16:32:64-S128"
target triple = "x86_64-pc-linux-gnu"

%struct.eset_s = type { [4 x i64], [200 x %struct.eset_bin_s], [200 x %struct.eset_bin_stats_s], %struct.edata_list_inactive_t, %struct.atomic_zu_t, i32 }
%struct.eset_bin_s = type { %struct.edata_heap_t, %struct.edata_cmp_summary_s }
%struct.edata_heap_t = type { %struct.ph_s }
%struct.ph_s = type { ptr, i64 }
%struct.edata_cmp_summary_s = type { i64, i64 }
%struct.eset_bin_stats_s = type { %struct.atomic_zu_t, %struct.atomic_zu_t }
%struct.edata_list_inactive_t = type { %struct.anon }
%struct.anon = type { ptr }
%struct.atomic_zu_t = type { i64 }

; Function Attrs: alwaysinline nounwind uwtable
define internal i32 @atomic_enum_to_builtin(i32 noundef %0) #3 {
  %2 = alloca i32, align 4
  %3 = alloca i32, align 4
  store i32 %0, ptr %3, align 4, !tbaa !9
  %4 = load i32, ptr %3, align 4, !tbaa !9
  switch i32 %4, label %10 [
    i32 0, label %5
    i32 1, label %6
    i32 2, label %7
    i32 3, label %8
    i32 4, label %9
  ]

5:                                                ; preds = %1
  store i32 0, ptr %2, align 4
  br label %12

6:                                                ; preds = %1
  store i32 2, ptr %2, align 4
  br label %12

7:                                                ; preds = %1
  store i32 3, ptr %2, align 4
  br label %12

8:                                                ; preds = %1
  store i32 4, ptr %2, align 4
  br label %12

9:                                                ; preds = %1
  store i32 5, ptr %2, align 4
  br label %12

10:                                               ; preds = %1
  br label %11

11:                                               ; preds = %10
  unreachable

12:                                               ; preds = %5, %6, %7, %8, %9
  %13 = load i32, ptr %2, align 4
  ret i32 %13
}

; Function Attrs: alwaysinline nounwind uwtable
define internal void @atomic_store_zu(ptr noundef %0, i64 noundef %1, i32 noundef %2) #3 {
  %4 = alloca ptr, align 8
  %5 = alloca i64, align 8
  %6 = alloca i32, align 4
  store ptr %0, ptr %4, align 8, !tbaa !27
  store i64 %1, ptr %5, align 8, !tbaa !26
  store i32 %2, ptr %6, align 4, !tbaa !9
  %7 = load ptr, ptr %4, align 8, !tbaa !27
  %8 = getelementptr inbounds nuw %struct.atomic_zu_t, ptr %7, i32 0, i32 0
  %9 = load i32, ptr %6, align 4, !tbaa !9
  %10 = call i32 @atomic_enum_to_builtin(i32 noundef %9)
  switch i32 %10, label %11 [
    i32 3, label %13
    i32 5, label %15
  ]

11:                                               ; preds = %3
  %12 = load i64, ptr %5, align 8
  store atomic i64 %12, ptr %8 monotonic, align 8
  br label %17

13:                                               ; preds = %3
  %14 = load i64, ptr %5, align 8
  store atomic i64 %14, ptr %8 release, align 8
  br label %17

15:                                               ; preds = %3
  %16 = load i64, ptr %5, align 8
  store atomic i64 %16, ptr %8 seq_cst, align 8
  br label %17

17:                                               ; preds = %15, %13, %11
  ret void
}

; Function Attrs: inlinehint nounwind uwtable
define internal void @edata_list_inactive_init(ptr noundef %0) #2 {
  %2 = alloca ptr, align 8
  store ptr %0, ptr %2, align 8, !tbaa !27
  br label %3

3:                                                ; preds = %1
  %4 = load ptr, ptr %2, align 8, !tbaa !27
  %5 = getelementptr inbounds nuw %struct.edata_list_inactive_t, ptr %4, i32 0, i32 0
  %6 = getelementptr inbounds nuw %struct.anon, ptr %5, i32 0, i32 0
  store ptr null, ptr %6, align 8, !tbaa !28
  br label %7

7:                                                ; preds = %3
  ret void
}

; Function Attrs: inlinehint nounwind uwtable
define internal void @fb_init(ptr noundef %0, i64 noundef %1) #2 {
  %3 = alloca ptr, align 8
  %4 = alloca i64, align 8
  %5 = alloca i64, align 8
  store ptr %0, ptr %3, align 8, !tbaa !24
  store i64 %1, ptr %4, align 8, !tbaa !26
  call void @llvm.lifetime.start.p0(i64 8, ptr %5) #9
  %6 = load i64, ptr %4, align 8, !tbaa !26
  %7 = udiv i64 %6, 64
  %8 = load i64, ptr %4, align 8, !tbaa !26
  %9 = urem i64 %8, 64
  %10 = icmp eq i64 %9, 0
  %11 = select i1 %10, i32 0, i32 1
  %12 = sext i32 %11 to i64
  %13 = add i64 %7, %12
  store i64 %13, ptr %5, align 8, !tbaa !26
  %14 = load ptr, ptr %3, align 8, !tbaa !24
  %15 = load i64, ptr %5, align 8, !tbaa !26
  %16 = mul i64 %15, 8
  call void @llvm.memset.p0.i64(ptr align 8 %14, i8 0, i64 %16, i1 false)
  call void @llvm.lifetime.end.p0(i64 8, ptr %5) #9
  ret void
}

; Function Attrs: nounwind uwtable
define internal void @eset_bin_stats_init(ptr noundef %0) #0 {
  %2 = alloca ptr, align 8
  store ptr %0, ptr %2, align 8, !tbaa !22
  %3 = load ptr, ptr %2, align 8, !tbaa !22
  %4 = getelementptr inbounds nuw %struct.eset_bin_stats_s, ptr %3, i32 0, i32 0
  call void @atomic_store_zu(ptr noundef %4, i64 noundef 0, i32 noundef 0)
  %5 = load ptr, ptr %2, align 8, !tbaa !22
  %6 = getelementptr inbounds nuw %struct.eset_bin_stats_s, ptr %5, i32 0, i32 1
  call void @atomic_store_zu(ptr noundef %6, i64 noundef 0, i32 noundef 0)
  ret void
}

; Function Attrs: nounwind uwtable
define internal void @eset_bin_init(ptr noundef %0) #0 {
  %2 = alloca ptr, align 8
  store ptr %0, ptr %2, align 8, !tbaa !20
  %3 = load ptr, ptr %2, align 8, !tbaa !20
  %4 = getelementptr inbounds nuw %struct.eset_bin_s, ptr %3, i32 0, i32 0
  call void @je_edata_heap_new(ptr noundef %4)
  ret void
}

; Function Attrs: nounwind uwtable
define hidden void @je_eset_init(ptr noundef %0, i32 noundef %1) #0 {
  %3 = alloca ptr, align 8
  %4 = alloca i32, align 4
  %5 = alloca i32, align 4
  store ptr %0, ptr %3, align 8, !tbaa !4
  store i32 %1, ptr %4, align 4, !tbaa !9
  call void @llvm.lifetime.start.p0(i64 4, ptr %5) #9
  store i32 0, ptr %5, align 4, !tbaa !9
  br label %6

6:                                                ; preds = %22, %2
  %7 = load i32, ptr %5, align 4, !tbaa !9
  %8 = zext i32 %7 to i64
  %9 = icmp ult i64 %8, 200
  br i1 %9, label %11, label %10

10:                                               ; preds = %6
  call void @llvm.lifetime.end.p0(i64 4, ptr %5) #9
  br label %25

11:                                               ; preds = %6
  %12 = load ptr, ptr %3, align 8, !tbaa !4
  %13 = getelementptr inbounds nuw %struct.eset_s, ptr %12, i32 0, i32 1
  %14 = load i32, ptr %5, align 4, !tbaa !9
  %15 = zext i32 %14 to i64
  %16 = getelementptr inbounds nuw [200 x %struct.eset_bin_s], ptr %13, i64 0, i64 %15
  call void @eset_bin_init(ptr noundef %16)
  %17 = load ptr, ptr %3, align 8, !tbaa !4
  %18 = getelementptr inbounds nuw %struct.eset_s, ptr %17, i32 0, i32 2
  %19 = load i32, ptr %5, align 4, !tbaa !9
  %20 = zext i32 %19 to i64
  %21 = getelementptr inbounds nuw [200 x %struct.eset_bin_stats_s], ptr %18, i64 0, i64 %20
  call void @eset_bin_stats_init(ptr noundef %21)
  br label %22

22:                                               ; preds = %11
  %23 = load i32, ptr %5, align 4, !tbaa !9
  %24 = add i32 %23, 1
  store i32 %24, ptr %5, align 4, !tbaa !9
  br label %6, !llvm.loop !11

25:                                               ; preds = %10
  %26 = load ptr, ptr %3, align 8, !tbaa !4
  %27 = getelementptr inbounds nuw %struct.eset_s, ptr %26, i32 0, i32 0
  %28 = getelementptr inbounds [4 x i64], ptr %27, i64 0, i64 0
  call void @fb_init(ptr noundef %28, i64 noundef 200)
  %29 = load ptr, ptr %3, align 8, !tbaa !4
  %30 = getelementptr inbounds nuw %struct.eset_s, ptr %29, i32 0, i32 3
  call void @edata_list_inactive_init(ptr noundef %30)
  %31 = load i32, ptr %4, align 4, !tbaa !9
  %32 = load ptr, ptr %3, align 8, !tbaa !4
  %33 = getelementptr inbounds nuw %struct.eset_s, ptr %32, i32 0, i32 5
  store i32 %31, ptr %33, align 8, !tbaa !13
  ret void
}